target datalayout = "e-m:e-p270:32:32-p271:32:32-p272:64:64-i64:64-i128:128-f80:128-n8:16:32:64-S128"
target triple = "x86_64-pc-linux-gnu"

%struct._tif = type { ptr, ptr, ptr, ptr }

@hf_ntlmssp_ntlmv2_response = internal global i32 0, align 4
@ett_ntlmssp_ntlmv2_response = internal global i32 0, align 4
@hf_ntlmssp_ntlmv2_response_ntproofstr = internal global i32 0, align 4
@hf_ntlmssp_ntlmv2_response_rversion = internal global i32 0, align 4
@hf_ntlmssp_ntlmv2_response_hirversion = internal global i32 0, align 4
@hf_ntlmssp_ntlmv2_response_z = internal global i32 0, align 4
@hf_ntlmssp_ntlmv2_response_time = internal global i32 0, align 4
@hf_ntlmssp_ntlmv2_response_chal = internal global i32 0, align 4
@ntlmssp_ntlmv2_response_tif = internal global %struct._tif { ptr @ett_ntlmssp_ntlmv2_response_item, ptr @hf_ntlmssp_ntlmv2_response_item_type, ptr @hf_ntlmssp_ntlmv2_response_item_len, ptr @ntlmssp_hf_ntlmv2_response_hf_ptr_array }, align 8
@hf_ntlmssp_ntlmv2_response_pad = internal global i32 0, align 4

; Function Attrs: null_pointer_is_valid sspstrong uwtable
define hidden i32 @dissect_ntlmv2_response(ptr noundef %0, ptr noundef %1, ptr noundef %2, i32 noundef %3, i32 noundef %4) #0 {
  %6 = alloca ptr, align 8
  %7 = alloca ptr, align 8
  %8 = alloca ptr, align 8
  %9 = alloca i32, align 4
  %10 = alloca i32, align 4
  %11 = alloca ptr, align 8
  %12 = alloca ptr, align 8
  %13 = alloca i32, align 4
  store ptr %0, ptr %6, align 8
  store ptr %1, ptr %7, align 8
  store ptr %2, ptr %8, align 8
  store i32 %3, ptr %9, align 4
  store i32 %4, ptr %10, align 4
  call void @llvm.lifetime.start.p0(i64 8, ptr %11) #17
  store ptr null, ptr %11, align 8
  call void @llvm.lifetime.start.p0(i64 8, ptr %12) #17
  store ptr null, ptr %12, align 8
  call void @llvm.lifetime.start.p0(i64 4, ptr %13) #17
  %14 = load i32, ptr %9, align 4
  store i32 %14, ptr %13, align 4
  %15 = load ptr, ptr %8, align 8
  %16 = icmp ne ptr %15, null
  br i1 %16, label %17, label %27

17:                                               ; preds = %5
  %18 = load ptr, ptr %8, align 8
  %19 = load i32, ptr @hf_ntlmssp_ntlmv2_response, align 4
  %20 = load ptr, ptr %6, align 8
  %21 = load i32, ptr %9, align 4
  %22 = load i32, ptr %10, align 4
  %23 = call ptr @proto_tree_add_item(ptr noundef %18, i32 noundef %19, ptr noundef %20, i32 noundef %21, i32 noundef %22, i32 noundef 0)
  store ptr %23, ptr %11, align 8
  %24 = load ptr, ptr %11, align 8
  %25 = load i32, ptr @ett_ntlmssp_ntlmv2_response, align 4
  %26 = call ptr @proto_item_add_subtree(ptr noundef %24, i32 noundef %25)
  store ptr %26, ptr %12, align 8
  br label %27

27:                                               ; preds = %17, %5
  %28 = load ptr, ptr %12, align 8
  %29 = load i32, ptr @hf_ntlmssp_ntlmv2_response_ntproofstr, align 4
  %30 = load ptr, ptr %6, align 8
  %31 = load i32, ptr %9, align 4
  %32 = call ptr @proto_tree_add_item(ptr noundef %28, i32 noundef %29, ptr noundef %30, i32 noundef %31, i32 noundef 16, i32 noundef 0)
  %33 = load i32, ptr %9, align 4
  %34 = add i32 %33, 16
  store i32 %34, ptr %9, align 4
  %35 = load ptr, ptr %12, align 8
  %36 = load i32, ptr @hf_ntlmssp_ntlmv2_response_rversion, align 4
  %37 = load ptr, ptr %6, align 8
  %38 = load i32, ptr %9, align 4
  %39 = call ptr @proto_tree_add_item(ptr noundef %35, i32 noundef %36, ptr noundef %37, i32 noundef %38, i32 noundef 1, i32 noundef -2147483648)
  %40 = load i32, ptr %9, align 4
  %41 = add i32 %40, 1
  store i32 %41, ptr %9, align 4
  %42 = load ptr, ptr %12, align 8
  %43 = load i32, ptr @hf_ntlmssp_ntlmv2_response_hirversion, align 4
  %44 = load ptr, ptr %6, align 8
  %45 = load i32, ptr %9, align 4
  %46 = call ptr @proto_tree_add_item(ptr noundef %42, i32 noundef %43, ptr noundef %44, i32 noundef %45, i32 noundef 1, i32 noundef -2147483648)
  %47 = load i32, ptr %9, align 4
  %48 = add i32 %47, 1
  store i32 %48, ptr %9, align 4
  %49 = load ptr, ptr %12, align 8
  %50 = load i32, ptr @hf_ntlmssp_ntlmv2_response_z, align 4
  %51 = load ptr, ptr %6, align 8
  %52 = load i32, ptr %9, align 4
  %53 = call ptr @proto_tree_add_item(ptr noundef %49, i32 noundef %50, ptr noundef %51, i32 noundef %52, i32 noundef 6, i32 noundef 0)
  %54 = load i32, ptr %9, align 4
  %55 = add i32 %54, 6
  store i32 %55, ptr %9, align 4
  %56 = load ptr, ptr %6, align 8
  %57 = load ptr, ptr %12, align 8
  %58 = load i32, ptr %9, align 4
  %59 = load i32, ptr @hf_ntlmssp_ntlmv2_response_time, align 4
  %60 = call ptr @dissect_nttime(ptr noundef %56, ptr noundef %57, i32 noundef %58, i32 noundef %59, i32 noundef -2147483648)
  %61 = load i32, ptr %9, align 4
  %62 = add i32 %61, 8
  store i32 %62, ptr %9, align 4
  %63 = load ptr, ptr %12, align 8
  %64 = load i32, ptr @hf_ntlmssp_ntlmv2_response_chal, align 4
  %65 = load ptr, ptr %6, align 8
  %66 = load i32, ptr %9, align 4
  %67 = call ptr @proto_tree_add_item(ptr noundef %63, i32 noundef %64, ptr noundef %65, i32 noundef %66, i32 noundef 8, i32 noundef 0)
  %68 = load i32, ptr %9, align 4
  %69 = add i32 %68, 8
  store i32 %69, ptr %9, align 4
  %70 = load ptr, ptr %12, align 8
  %71 = load i32, ptr @hf_ntlmssp_ntlmv2_response_z, align 4
  %72 = load ptr, ptr %6, align 8
  %73 = load i32, ptr %9, align 4
  %74 = call ptr @proto_tree_add_item(ptr noundef %70, i32 noundef %71, ptr noundef %72, i32 noundef %73, i32 noundef 4, i32 noundef 0)
  %75 = load i32, ptr %9, align 4
  %76 = add i32 %75, 4
  store i32 %76, ptr %9, align 4
  %77 = load ptr, ptr %6, align 8
  %78 = load ptr, ptr %7, align 8
  %79 = load ptr, ptr %12, align 8
  %80 = load i32, ptr %9, align 4
  %81 = load i32, ptr %10, align 4
  %82 = load i32, ptr %9, align 4
  %83 = load i32, ptr %13, align 4
  %84 = sub i32 %82, %83
  %85 = sub i32 %81, %84
  %86 = trunc i32 %85 to i16
  %87 = call i32 @dissect_ntlmssp_target_info_list(ptr noundef %77, ptr noundef %78, ptr noundef %79, i32 noundef %80, i16 noundef zeroext %86, ptr noundef @ntlmssp_ntlmv2_response_tif)
  store i32 %87, ptr %9, align 4
  %88 = load i32, ptr %9, align 4
  %89 = load i32, ptr %13, align 4
  %90 = sub i32 %88, %89
  %91 = load i32, ptr %10, align 4
  %92 = icmp slt i32 %90, %91
  br i1 %92, label %93, label %104

93:                                               ; preds = %27
  %94 = load ptr, ptr %12, align 8
  %95 = load i32, ptr @hf_ntlmssp_ntlmv2_response_pad, align 4
  %96 = load ptr, ptr %6, align 8
  %97 = load i32, ptr %9, align 4
  %98 = load i32, ptr %10, align 4
  %99 = load i32, ptr %9, align 4
  %100 = load i32, ptr %13, align 4
  %101 = sub i32 %99, %100
  %102 = sub i32 %98, %101
  %103 = call ptr @proto_tree_add_item(ptr noundef %94, i32 noundef %95, ptr noundef %96, i32 noundef %97, i32 noundef %102, i32 noundef 0)
  br label %104

104:                                              ; preds = %93, %27
  %105 = load i32, ptr %9, align 4
  %106 = load i32, ptr %10, align 4
  %107 = add i32 %105, %106
  call void @llvm.lifetime.end.p0(i64 4, ptr %13) #17
  call void @llvm.lifetime.end.p0(i64 8, ptr %12) #17
  call void @llvm.lifetime.end.p0(i64 8, ptr %11) #17
  ret i32 %107
}