; Function Attrs: null_pointer_is_valid sspstrong uwtable
define hidden noundef i32 @dissect_ntlmv2_response(ptr noundef %0, ptr noundef %1, ptr noundef %2, i32 noundef %3, i32 noundef %4) local_unnamed_addr #0 {
  %.not = icmp eq ptr %2, null
  br i1 %.not, label %11, label %6

6:                                                ; preds = %5
  %7 = load i32, ptr @hf_ntlmssp_ntlmv2_response, align 4
  %8 = tail call ptr @proto_tree_add_item(ptr noundef nonnull %2, i32 noundef %7, ptr noundef %0, i32 noundef %3, i32 noundef %4, i32 noundef 0)
  %9 = load i32, ptr @ett_ntlmssp_ntlmv2_response, align 4
  %10 = tail call ptr @proto_item_add_subtree(ptr noundef %8, i32 noundef %9)
  br label %11

11:                                               ; preds = %6, %5
  %.0 = phi ptr [ %10, %6 ], [ null, %5 ]
  %12 = load i32, ptr @hf_ntlmssp_ntlmv2_response_ntproofstr, align 4
  %13 = tail call ptr @proto_tree_add_item(ptr noundef %.0, i32 noundef %12, ptr noundef %0, i32 noundef %3, i32 noundef 16, i32 noundef 0)
  %14 = add i32 %3, 16
  %15 = load i32, ptr @hf_ntlmssp_ntlmv2_response_rversion, align 4
  %16 = tail call ptr @proto_tree_add_item(ptr noundef %.0, i32 noundef %15, ptr noundef %0, i32 noundef %14, i32 noundef 1, i32 noundef -2147483648)
  %17 = add i32 %3, 17
  %18 = load i32, ptr @hf_ntlmssp_ntlmv2_response_hirversion, align 4
  %19 = tail call ptr @proto_tree_add_item(ptr noundef %.0, i32 noundef %18, ptr noundef %0, i32 noundef %17, i32 noundef 1, i32 noundef -2147483648)
  %20 = add i32 %3, 18
  %21 = load i32, ptr @hf_ntlmssp_ntlmv2_response_z, align 4
  %22 = tail call ptr @proto_tree_add_item(ptr noundef %.0, i32 noundef %21, ptr noundef %0, i32 noundef %20, i32 noundef 6, i32 noundef 0)
  %23 = add i32 %3, 24
  %24 = load i32, ptr @hf_ntlmssp_ntlmv2_response_time, align 4
  %25 = tail call ptr @dissect_nttime(ptr noundef %0, ptr noundef %.0, i32 noundef %23, i32 noundef %24, i32 noundef -2147483648)
  %26 = add i32 %3, 32
  %27 = load i32, ptr @hf_ntlmssp_ntlmv2_response_chal, align 4
  %28 = tail call ptr @proto_tree_add_item(ptr noundef %.0, i32 noundef %27, ptr noundef %0, i32 noundef %26, i32 noundef 8, i32 noundef 0)
  %29 = add i32 %3, 40
  %30 = load i32, ptr @hf_ntlmssp_ntlmv2_response_z, align 4
  %31 = tail call ptr @proto_tree_add_item(ptr noundef %.0, i32 noundef %30, ptr noundef %0, i32 noundef %29, i32 noundef 4, i32 noundef 0)
  %32 = add i32 %3, 44
  %33 = trunc i32 %4 to i16
  %34 = add i16 %33, -44
  %35 = tail call fastcc i32 @dissect_ntlmssp_target_info_list(ptr noundef %0, ptr noundef %1, ptr noundef %.0, i32 noundef %32, i16 noundef zeroext %34, ptr noundef nonnull @ntlmssp_ntlmv2_response_tif)
  %36 = sub i32 %35, %3
  %37 = icmp slt i32 %36, %4
  br i1 %37, label %38, label %42

38:                                               ; preds = %11
  %39 = load i32, ptr @hf_ntlmssp_ntlmv2_response_pad, align 4
  %40 = sub i32 %4, %36
  %41 = tail call ptr @proto_tree_add_item(ptr noundef %.0, i32 noundef %39, ptr noundef %0, i32 noundef %35, i32 noundef %40, i32 noundef 0)
  br label %42

42:                                               ; preds = %38, %11
  %43 = add i32 %35, %4
  ret i32 %43
}